; ModuleID = '30/3058.c'
source_filename = "30/3058.c"
target datalayout = "e-m:e-p270:32:32-p271:32:32-p272:64:64-i64:64-f80:128-n8:16:32:64-S128"
target triple = "x86_64-pc-linux-gnu"

@.str = private unnamed_addr constant [3 x i8] c"%d\00", align 1

; Function Attrs: noinline nounwind uwtable
define dso_local i32 @main() #0 {
  %1 = alloca i32, align 4
  %2 = alloca i32, align 4
  %3 = alloca i32, align 4
  %4 = alloca i32, align 4
  %5 = alloca i32, align 4
  %6 = alloca i32, align 4
  store i32 0, i32* %1, align 4
  store i32 0, i32* %6, align 4
  %7 = call i32 (i8*, ...) @__isoc99_scanf(i8* getelementptr inbounds ([3 x i8], [3 x i8]* @.str, i64 0, i64 0), i32* %2)
  %8 = load i32, i32* %2, align 4
  %9 = icmp slt i32 %8, 10
  br i1 %9, label %10, label %32

10:                                               ; preds = %0
  store i32 0, i32* %5, align 4
  br label %11

11:                                               ; preds = %26, %10
  %12 = load i32, i32* %5, align 4
  %13 = load i32, i32* %2, align 4
  %14 = icmp sle i32 %12, %13
  br i1 %14, label %15, label %29

15:                                               ; preds = %11
  %16 = load i32, i32* %5, align 4
  %17 = srem i32 %16, 7
  %18 = icmp ne i32 %17, 0
  br i1 %18, label %19, label %25

19:                                               ; preds = %15
  %20 = load i32, i32* %6, align 4
  %21 = load i32, i32* %5, align 4
  %22 = load i32, i32* %5, align 4
  %23 = mul nsw i32 %21, %22
  %24 = add nsw i32 %20, %23
  store i32 %24, i32* %6, align 4
  br label %25

25:                                               ; preds = %19, %15
  br label %26

26:                                               ; preds = %25
  %27 = load i32, i32* %5, align 4
  %28 = add nsw i32 %27, 1
  store i32 %28, i32* %5, align 4
  br label %11

29:                                               ; preds = %11
  %30 = load i32, i32* %6, align 4
  %31 = call i32 (i8*, ...) @printf(i8* getelementptr inbounds ([3 x i8], [3 x i8]* @.str, i64 0, i64 0), i32 %30)
  br label %67

32:                                               ; preds = %0
  store i32 0, i32* %5, align 4
  br label %33

33:                                               ; preds = %61, %32
  %34 = load i32, i32* %5, align 4
  %35 = load i32, i32* %2, align 4
  %36 = icmp sle i32 %34, %35
  br i1 %36, label %37, label %64

37:                                               ; preds = %33
  %38 = load i32, i32* %5, align 4
  %39 = srem i32 %38, 7
  %40 = icmp ne i32 %39, 0
  br i1 %40, label %41, label %60

41:                                               ; preds = %37
  %42 = load i32, i32* %5, align 4
  %43 = sdiv i32 %42, 10
  store i32 %43, i32* %3, align 4
  %44 = load i32, i32* %5, align 4
  %45 = load i32, i32* %3, align 4
  %46 = mul nsw i32 %45, 10
  %47 = sub nsw i32 %44, %46
  store i32 %47, i32* %4, align 4
  %48 = load i32, i32* %3, align 4
  %49 = icmp ne i32 %48, 7
  br i1 %49, label %50, label %59

50:                                               ; preds = %41
  %51 = load i32, i32* %4, align 4
  %52 = icmp ne i32 %51, 7
  br i1 %52, label %53, label %59

53:                                               ; preds = %50
  %54 = load i32, i32* %6, align 4
  %55 = load i32, i32* %5, align 4
  %56 = load i32, i32* %5, align 4
  %57 = mul nsw i32 %55, %56
  %58 = add nsw i32 %54, %57
  store i32 %58, i32* %6, align 4
  br label %59

59:                                               ; preds = %53, %50, %41
  br label %60

60:                                               ; preds = %59, %37
  br label %61

61:                                               ; preds = %60
  %62 = load i32, i32* %5, align 4
  %63 = add nsw i32 %62, 1
  store i32 %63, i32* %5, align 4
  br label %33

64:                                               ; preds = %33
  %65 = load i32, i32* %6, align 4
  %66 = call i32 (i8*, ...) @printf(i8* getelementptr inbounds ([3 x i8], [3 x i8]* @.str, i64 0, i64 0), i32 %65)
  br label %67

67:                                               ; preds = %64, %29
  ret i32 0
}

declare dso_local i32 @__isoc99_scanf(i8*, ...) #1

declare dso_local i32 @printf(i8*, ...) #1


!llvm.module.flags = !{!0}
!llvm.ident = !{!1}

!0 = !{i32 1, !"wchar_size", i32 4}
!1 = !{!"clang version 10.0.0-4ubuntu1 "}
